(dp1
S'test_args_fname'
p2
S'buildutil/test.build-args'
p3
sS'plugin_classpath'
p4
S'/home/gatoatigrado/.m2/repository/org/scala-lang/scala-library/2.8.0-SNAPSHOT/scala-library-2.8.0-SNAPSHOT.jar'
p5
sS'base_fname'
p6
S'/tmp/scala-maven-8212538678650877199.args'
p7
sS'base_args_fname'
p8
S'buildutil/base.build-args'
p9
sS'plugin_clsdir'
p10
S'/home/gatoatigrado/sandbox/skalch/skalch-plugin/target/classes'
p11
sS'test_classpath'
p12
S'/home/gatoatigrado/.m2/repository/com/thoughtworks/xstream/xstream/1.3.1/xstream-1.3.1.jar:/home/gatoatigrado/.m2/repository/org/scala-lang/scala-library/2.8.0-SNAPSHOT/scala-library-2.8.0-SNAPSHOT.jar:/home/gatoatigrado/.m2/repository/xom/xom/1.1/xom-1.1.jar:/home/gatoatigrado/.m2/repository/net/sourceforge/gxl/0.92/gxl-0.92.jar:/home/gatoatigrado/.m2/repository/edu/berkeley/cs/sketch/sketch-frontend/1.5.0-SNAPSHOT/sketch-frontend-1.5.0-SNAPSHOT.jar:/home/gatoatigrado/.m2/repository/org/swinglabs/swing-layout/1.0.3/swing-layout-1.0.3.jar:/home/gatoatigrado/.m2/repository/commons-cli/commons-cli/1.2/commons-cli-1.2.jar'
p13
sS'plugin_outname'
p14
S'/home/gatoatigrado/sandbox/skalch/buildutil/sketchrewriter.jar'
p15
sS'plugin_args_fname'
p16
S'buildutil/plugin.build-args'
p17
sS'fname'
p18
S'/tmp/scala-maven-1249258930131450292.args'
p19
sS'test_clsdir'
p20
S'/home/gatoatigrado/sandbox/skalch/skalch-base/target/test-classes'
p21
sS'test_fname'
p22
S'/tmp/scala-maven-7023564765529775634.args'
p23
sS'base_clsdir'
p24
S'/home/gatoatigrado/sandbox/skalch/skalch-base/target/classes'
p25
sS'base_classpath'
p26
S'/home/gatoatigrado/.m2/repository/com/thoughtworks/xstream/xstream/1.3.1/xstream-1.3.1.jar:/home/gatoatigrado/.m2/repository/org/scala-lang/scala-library/2.8.0-SNAPSHOT/scala-library-2.8.0-SNAPSHOT.jar:/home/gatoatigrado/.m2/repository/xom/xom/1.1/xom-1.1.jar:/home/gatoatigrado/.m2/repository/net/sourceforge/gxl/0.92/gxl-0.92.jar:/home/gatoatigrado/.m2/repository/edu/berkeley/cs/sketch/sketch-frontend/1.5.0-SNAPSHOT/sketch-frontend-1.5.0-SNAPSHOT.jar:/home/gatoatigrado/.m2/repository/org/swinglabs/swing-layout/1.0.3/swing-layout-1.0.3.jar:/home/gatoatigrado/.m2/repository/commons-cli/commons-cli/1.2/commons-cli-1.2.jar'
p27
s.